target datalayout = "e-m:e-p270:32:32-p271:32:32-p272:64:64-i64:64-i128:128-f80:128-n8:16:32:64-S128"
target triple = "x86_64-pc-linux-gnu"

%"class.llvm::MemoryBufferRef" = type { %"class.llvm::StringRef", %"class.llvm::StringRef" }
%"class.llvm::StringRef" = type { ptr, i64 }
%"class.llvm::object::Binary" = type { ptr, i32, %"class.llvm::MemoryBufferRef" }
%"class.llvm::object::XCOFFObjectFile" = type { %"class.llvm::object::ObjectFile", ptr, ptr, ptr, ptr, %"struct.llvm::object::XCOFFStringTable" }
%"class.llvm::object::ObjectFile" = type { %"class.llvm::object::SymbolicFile" }
%"class.llvm::object::SymbolicFile" = type { %"class.llvm::object::Binary" }
%"struct.llvm::object::XCOFFStringTable" = type { i32, ptr }

; Function Attrs: mustprogress nounwind uwtable
define internal noundef i64 @_ZN4llvm6objectL13getWithOffsetEml(i64 noundef %0, i64 noundef %1) #0 {
  %3 = alloca i64, align 8
  %4 = alloca i64, align 8
  store i64 %0, ptr %3, align 8
  store i64 %1, ptr %4, align 8
  %5 = load i64, ptr %3, align 8
  %6 = inttoptr i64 %5 to ptr
  %7 = load i64, ptr %4, align 8
  %8 = getelementptr inbounds i8, ptr %6, i64 %7
  %9 = ptrtoint ptr %8 to i64
  ret i64 %9
}

; Function Attrs: mustprogress nounwind uwtable
define dso_local noundef i64 @_ZN4llvm6object15XCOFFObjectFile29getAdvancedSymbolEntryAddressEmj(i64 noundef %0, i32 noundef %1) #0 align 2 {
  %3 = alloca i64, align 8
  %4 = alloca i32, align 4
  store i64 %0, ptr %3, align 8
  store i32 %1, ptr %4, align 4
  %5 = load i64, ptr %3, align 8
  %6 = load i32, ptr %4, align 4
  %7 = zext i32 %6 to i64
  %8 = mul i64 %7, 18
  %9 = call noundef i64 @_ZN4llvm6objectL13getWithOffsetEml(i64 noundef %5, i64 noundef %8)
  ret i64 %9
}

; Function Attrs: mustprogress nounwind uwtable
define linkonce_odr hidden noundef ptr @_ZNK4llvm6object15XCOFFObjectFile23getPointerToSymbolTableEv(ptr noundef nonnull align 8 dereferenceable(96) %0) #0 comdat align 2 {
  %2 = alloca ptr, align 8
  store ptr %0, ptr %2, align 8
  %3 = load ptr, ptr %2, align 8
  %4 = getelementptr inbounds nuw %"class.llvm::object::XCOFFObjectFile", ptr %3, i32 0, i32 4
  %5 = load ptr, ptr %4, align 8
  ret ptr %5
}

; Function Attrs: mustprogress nounwind uwtable
define dso_local noundef i64 @_ZNK4llvm6object15XCOFFObjectFile28getSymbolEntryAddressByIndexEj(ptr noundef nonnull align 8 dereferenceable(96) %0, i32 noundef %1) #0 align 2 {
  %3 = alloca ptr, align 8
  %4 = alloca i32, align 4
  store ptr %0, ptr %3, align 8
  store i32 %1, ptr %4, align 4
  %5 = load ptr, ptr %3, align 8
  %6 = call noundef ptr @_ZNK4llvm6object15XCOFFObjectFile23getPointerToSymbolTableEv(ptr noundef nonnull align 8 dereferenceable(96) %5)
  %7 = ptrtoint ptr %6 to i64
  %8 = load i32, ptr %4, align 4
  %9 = call noundef i64 @_ZN4llvm6object15XCOFFObjectFile29getAdvancedSymbolEntryAddressEmj(i64 noundef %7, i32 noundef %8)
  ret i64 %9
}