; Function Attrs: mustprogress nofree norecurse nosync nounwind willreturn memory(argmem: read) uwtable
define dso_local noundef i64 @_ZNK4llvm6object15XCOFFObjectFile28getSymbolEntryAddressByIndexEj(ptr nocapture noundef nonnull readonly align 8 dereferenceable(96) %0, i32 noundef %1) local_unnamed_addr #7 align 2 {
  %3 = getelementptr inbounds nuw i8, ptr %0, i64 72
  %4 = load ptr, ptr %3, align 8
  %5 = ptrtoint ptr %4 to i64
  %6 = zext i32 %1 to i64
  %7 = mul nuw nsw i64 %6, 18
  %8 = add i64 %7, %5
  ret i64 %8
}